target datalayout = "e-m:e-p270:32:32-p271:32:32-p272:64:64-i64:64-i128:128-f80:128-n8:16:32:64-S128"
target triple = "x86_64-pc-linux-gnu"

; Function Attrs: nounwind uwtable
define hidden ptr @i2v_GENERAL_NAMES(ptr noundef %0, ptr noundef %1, ptr noundef %2) #0 {
  %4 = alloca ptr, align 8
  %5 = alloca ptr, align 8
  %6 = alloca ptr, align 8
  %7 = alloca ptr, align 8
  %8 = alloca i64, align 8
  %9 = alloca ptr, align 8
  %10 = alloca i32, align 4
  store ptr %0, ptr %5, align 8, !tbaa !6
  store ptr %1, ptr %6, align 8, !tbaa !11
  store ptr %2, ptr %7, align 8, !tbaa !13
  call void @llvm.lifetime.start.p0(i64 8, ptr %8) #6
  call void @llvm.lifetime.start.p0(i64 8, ptr %9) #6
  store i64 0, ptr %8, align 8, !tbaa !15
  br label %11

11:                                               ; preds = %24, %3
  %12 = load i64, ptr %8, align 8, !tbaa !15
  %13 = load ptr, ptr %6, align 8, !tbaa !11
  %14 = call i64 @sk_num(ptr noundef %13)
  %15 = icmp ult i64 %12, %14
  br i1 %15, label %16, label %27

16:                                               ; preds = %11
  %17 = load ptr, ptr %6, align 8, !tbaa !11
  %18 = load i64, ptr %8, align 8, !tbaa !15
  %19 = call ptr @sk_value(ptr noundef %17, i64 noundef %18)
  store ptr %19, ptr %9, align 8, !tbaa !17
  %20 = load ptr, ptr %5, align 8, !tbaa !6
  %21 = load ptr, ptr %9, align 8, !tbaa !17
  %22 = load ptr, ptr %7, align 8, !tbaa !13
  %23 = call ptr @i2v_GENERAL_NAME(ptr noundef %20, ptr noundef %21, ptr noundef %22)
  store ptr %23, ptr %7, align 8, !tbaa !13
  br label %24

24:                                               ; preds = %16
  %25 = load i64, ptr %8, align 8, !tbaa !15
  %26 = add i64 %25, 1
  store i64 %26, ptr %8, align 8, !tbaa !15
  br label %11, !llvm.loop !19

27:                                               ; preds = %11
  %28 = load ptr, ptr %7, align 8, !tbaa !13
  %29 = icmp ne ptr %28, null
  br i1 %29, label %32, label %30

30:                                               ; preds = %27
  %31 = call ptr @sk_new_null()
  store ptr %31, ptr %4, align 8
  store i32 1, ptr %10, align 4
  br label %34

32:                                               ; preds = %27
  %33 = load ptr, ptr %7, align 8, !tbaa !13
  store ptr %33, ptr %4, align 8
  store i32 1, ptr %10, align 4
  br label %34

34:                                               ; preds = %32, %30
  call void @llvm.lifetime.end.p0(i64 8, ptr %9) #6
  call void @llvm.lifetime.end.p0(i64 8, ptr %8) #6
  %35 = load ptr, ptr %4, align 8
  ret ptr %35
}