; Function Attrs: nounwind uwtable
define hidden ptr @i2v_GENERAL_NAMES(ptr noundef readnone captures(none) %0, ptr noundef %1, ptr noundef %2) #0 {
  %4 = tail call i64 @sk_num(ptr noundef %1) #7
  %.not14 = icmp eq i64 %4, 0
  br i1 %.not14, label %._crit_edge, label %.lr.ph

.lr.ph:                                           ; preds = %3, %.lr.ph
  %.01013 = phi i64 [ %7, %.lr.ph ], [ 0, %3 ]
  %.01112 = phi ptr [ %6, %.lr.ph ], [ %2, %3 ]
  %5 = tail call ptr @sk_value(ptr noundef %1, i64 noundef %.01013) #7
  %6 = tail call ptr @i2v_GENERAL_NAME(ptr poison, ptr noundef %5, ptr noundef %.01112)
  %7 = add nuw i64 %.01013, 1
  %8 = tail call i64 @sk_num(ptr noundef %1) #7
  %9 = icmp ult i64 %7, %8
  br i1 %9, label %.lr.ph, label %._crit_edge, !llvm.loop !6

._crit_edge:                                      ; preds = %.lr.ph, %3
  %.011.lcssa = phi ptr [ %2, %3 ], [ %6, %.lr.ph ]
  %.not = icmp eq ptr %.011.lcssa, null
  br i1 %.not, label %10, label %12

10:                                               ; preds = %._crit_edge
  %11 = tail call ptr @sk_new_null() #7
  br label %12

12:                                               ; preds = %._crit_edge, %10
  %.0 = phi ptr [ %11, %10 ], [ %.011.lcssa, %._crit_edge ]
  ret ptr %.0
}